; Function Attrs: mustprogress nounwind willreturn memory(argmem: readwrite, inaccessiblemem: readwrite) uwtable
define void @Kit_DsdObjFree(ptr noundef readnone captures(none) %0, ptr noundef %1) local_unnamed_addr #8 {
  %.not = icmp eq ptr %1, null
  br i1 %.not, label %4, label %3

3:                                                ; preds = %2
  tail call void @free(ptr noundef nonnull %1) #27
  br label %4

4:                                                ; preds = %2, %3
  ret void
}